; Function Attrs: mustprogress nofree nounwind willreturn memory(write, argmem: readwrite) uwtable
define noundef zeroext i1 @_ZNK32pxrInternal_v0_24__pxrReserved__9GfFrustum14GetPerspectiveEPdS1_S1_S1_(ptr nocapture noundef nonnull readonly align 8 dereferenceable(128) %0, ptr nocapture noundef writeonly %1, ptr nocapture noundef writeonly %2, ptr nocapture noundef writeonly %3, ptr nocapture noundef writeonly %4) local_unnamed_addr #7 align 2 {
  %6 = getelementptr inbounds nuw i8, ptr %0, i64 112
  %7 = load i32, ptr %6, align 8
  %.not.i = icmp eq i32 %7, 1
  br i1 %.not.i, label %8, label %_ZNK32pxrInternal_v0_24__pxrReserved__9GfFrustum14GetPerspectiveEbPdS1_S1_S1_.exit

8:                                                ; preds = %5
  %9 = getelementptr inbounds nuw i8, ptr %0, i64 56
  %10 = getelementptr inbounds i8, ptr %0, i64 72
  %.sroa.0.0.copyload2.i.i.i = load double, ptr %10, align 8
  %.sroa.4.0..sroa_idx.i.i.i = getelementptr inbounds i8, ptr %0, i64 80
  %.sroa.4.0.copyload.i.i.i = load double, ptr %.sroa.4.0..sroa_idx.i.i.i, align 8
  %11 = load double, ptr %9, align 8
  %12 = fsub double %.sroa.0.0.copyload2.i.i.i, %11
  %13 = getelementptr inbounds i8, ptr %0, i64 64
  %14 = load double, ptr %13, align 8
  %15 = fsub double %.sroa.4.0.copyload.i.i.i, %14
  %16 = fmul double %15, 5.000000e-01
  %17 = tail call double @atan(double noundef %16) #24
  %storemerge.in.i = fmul double %17, 0x404CA5DC1A63C1F8
  %storemerge.i = fmul double %storemerge.in.i, 2.000000e+00
  store double %storemerge.i, ptr %1, align 8
  %18 = fdiv double %12, %15
  store double %18, ptr %2, align 8
  %19 = getelementptr inbounds nuw i8, ptr %0, i64 88
  %20 = load double, ptr %19, align 8
  store double %20, ptr %3, align 8
  %21 = getelementptr inbounds i8, ptr %0, i64 96
  %22 = load double, ptr %21, align 8
  store double %22, ptr %4, align 8
  br label %_ZNK32pxrInternal_v0_24__pxrReserved__9GfFrustum14GetPerspectiveEbPdS1_S1_S1_.exit

_ZNK32pxrInternal_v0_24__pxrReserved__9GfFrustum14GetPerspectiveEbPdS1_S1_S1_.exit: ; preds = %5, %8
  ret i1 %.not.i
}